; Function Attrs: nounwind uwtable
define ptr @Abc_ObjHopFromGia(ptr noundef %0, ptr noundef %1, i32 noundef %2, ptr noundef %3) local_unnamed_addr #1 {
  tail call void @Gia_ManIncrementTravId(ptr noundef %1) #19
  %5 = getelementptr i8, ptr %1, i64 264
  %6 = sext i32 %2 to i64
  %.val1921 = load ptr, ptr %5, align 8
  %7 = getelementptr i8, ptr %.val1921, i64 8
  %.val19.val22 = load ptr, ptr %7, align 8
  %8 = getelementptr inbounds i32, ptr %.val19.val22, i64 %6
  %9 = load i32, ptr %8, align 4
  %10 = sext i32 %9 to i64
  %11 = getelementptr inbounds i32, ptr %.val19.val22, i64 %10
  %12 = load i32, ptr %11, align 4
  %13 = icmp sgt i32 %12, 0
  br i1 %13, label %.lr.ph, label %.critedge

.lr.ph:                                           ; preds = %4
  %14 = getelementptr i8, ptr %1, i64 176
  %15 = getelementptr i8, ptr %1, i64 616
  %16 = getelementptr i8, ptr %3, i64 8
  br label %17

17:                                               ; preds = %.lr.ph, %17
  %indvars.iv = phi i64 [ 0, %.lr.ph ], [ %indvars.iv.next, %17 ]
  %18 = phi ptr [ %11, %.lr.ph ], [ %31, %17 ]
  %19 = getelementptr inbounds nuw i8, ptr %18, i64 4
  %20 = getelementptr inbounds nuw i32, ptr %19, i64 %indvars.iv
  %21 = load i32, ptr %20, align 4
  %.val = load i32, ptr %14, align 8
  %.val17 = load ptr, ptr %15, align 8
  %22 = sext i32 %21 to i64
  %23 = getelementptr inbounds i32, ptr %.val17, i64 %22
  store i32 %.val, ptr %23, align 4
  %24 = trunc nuw nsw i64 %indvars.iv to i32
  %25 = tail call ptr @Hop_IthVar(ptr noundef %0, i32 noundef %24) #19
  %.val18 = load ptr, ptr %16, align 8
  %26 = getelementptr inbounds ptr, ptr %.val18, i64 %22
  store ptr %25, ptr %26, align 8
  %indvars.iv.next = add nuw nsw i64 %indvars.iv, 1
  %.val19 = load ptr, ptr %5, align 8
  %27 = getelementptr i8, ptr %.val19, i64 8
  %.val19.val = load ptr, ptr %27, align 8
  %28 = getelementptr inbounds i32, ptr %.val19.val, i64 %6
  %29 = load i32, ptr %28, align 4
  %30 = sext i32 %29 to i64
  %31 = getelementptr inbounds i32, ptr %.val19.val, i64 %30
  %32 = load i32, ptr %31, align 4
  %33 = sext i32 %32 to i64
  %34 = icmp slt i64 %indvars.iv.next, %33
  br i1 %34, label %17, label %.critedge, !llvm.loop !44

.critedge:                                        ; preds = %17, %4
  %35 = tail call ptr @Abc_ObjHopFromGia_rec(ptr noundef %0, ptr noundef nonnull %1, i32 noundef %2, ptr noundef %3)
  ret ptr %35
}